gplink-2.2.15 (Dec 17 2019)
Listing File Generated: 2020-3-30  14:00:02
 
 
Address  Value    Disassembly              Source
-------  -----    -----------              ------
                                           ;--------------------------------------------------------
                                           ; external declarations
                                           ;--------------------------------------------------------
                                           	extern	_HIBYTEbits
                                           	extern	_FSR0bits
                                           	extern	_FSR1bits
                                           	extern	_PFLAGbits
                                           	extern	_P4CONbits
                                           	extern	_VREFCRbits
                                           	extern	_ADMbits
                                           	extern	_ADBbits
                                           	extern	_ADRbits
                                           	extern	_ADTbits
                                           	extern	_OEP0bits
                                           	extern	_EINTCRbits
                                           	extern	_OEP4bits
                                           	extern	_OEP5bits
                                           	extern	_INTFbits
                                           	extern	_INTEbits
                                           	extern	_OSCMbits
                                           	extern	_WDTCRbits
                                           	extern	_T0LDRbits
                                           	extern	_PCLbits
                                           	extern	_PCHbits
                                           	extern	_IOP0bits
                                           	extern	_IOP4bits
                                           	extern	_IOP5bits
                                           	extern	_TMRCRbits
                                           	extern	_T0CRbits
                                           	extern	_T0CNTbits
                                           	extern	_T1CRbits
                                           	extern	_T1CNTbits
                                           	extern	_T1LDRbits
                                           	extern	_MCRbits
                                           	extern	_PUP0bits
                                           	extern	_PUP4bits
                                           	extern	_PUP5bits
                                           	extern	_INDFbits
                                           	extern	_STKR3Lbits
                                           	extern	_STKR3Hbits
                                           	extern	_STKR2Lbits
                                           	extern	_STKR2Hbits
                                           	extern	_STKR1Lbits
                                           	extern	_STKR1Hbits
                                           	extern	_STKR0Lbits
                                           	extern	_STKR0Hbits
                                           	extern	_HIBYTE
                                           	extern	_FSR0
                                           	extern	_FSR1
                                           	extern	_PFLAG
                                           	extern	_P4CON
                                           	extern	_VREFCR
                                           	extern	_ADM
                                           	extern	_ADB
                                           	extern	_ADR
                                           	extern	_ADT
                                           	extern	_OEP0
                                           	extern	_EINTCR
                                           	extern	_OEP4
                                           	extern	_OEP5
                                           	extern	_INTF
                                           	extern	_INTE
                                           	extern	_OSCM
                                           	extern	_WDTCR
                                           	extern	_T0LDR
                                           	extern	_PCL
                                           	extern	_PCH
                                           	extern	_IOP0
                                           	extern	_IOP4
                                           	extern	_IOP5
                                           	extern	_TMRCR
                                           	extern	_T0CR
                                           	extern	_T0CNT
                                           	extern	_T1CR
                                           	extern	_T1CNT
                                           	extern	_T1LDR
                                           	extern	_MCR
                                           	extern	_PUP0
                                           	extern	_PUP4
                                           	extern	_PUP5
                                           	extern	_INDF
                                           	extern	_STKR3L
                                           	extern	_STKR3H
                                           	extern	_STKR2L
                                           	extern	_STKR2H
                                           	extern	_STKR1L
                                           	extern	_STKR1H
                                           	extern	_STKR0L
                                           	extern	_STKR0H
                                           ;--------------------------------------------------------
                                           ; global declarations
                                           ;--------------------------------------------------------
                                           	global	_Sys_Init
                                           	global	_TIMER0_INT_Init
                                           	global	_IO_Init
                                           	global	_CLR_RAM
                                           	global	_main
                                           	global	_int_isr
                                           	global	_flag1
                                           
                                           	global STK06
                                           	global STK05
                                           	global STK04
                                           	global STK03
                                           	global STK02
                                           	global STK01
                                           	global STK00
                                           
                                           sharebank udata_ovr 0x0000
                                           STK06	res 1
                                           STK05	res 1
                                           STK04	res 1
                                           STK03	res 1
                                           STK02	res 1
                                           STK01	res 1
                                           STK00	res 1
                                           
                                           ;--------------------------------------------------------
                                           ; global definitions
                                           ;--------------------------------------------------------
                                           UD_MC35P7040_Demo_C_0	udata
                                           _flag1	res	1
                                           
                                           ;--------------------------------------------------------
                                           ; absolute symbol definitions
                                           ;--------------------------------------------------------
                                           ;--------------------------------------------------------
                                           ; compiler-defined variables
                                           ;--------------------------------------------------------
                                           UDL_MC35P7040_Demo_C_0	udata
                                           r0x1000	res	1
                                           r0x1001	res	1
                                           r0x1003	res	1
                                           ;--------------------------------------------------------
                                           ; initialized data
                                           ;--------------------------------------------------------
                                           
                                           ;@Allocation info for local variables in function 'CLR_RAM'
                                           ;@CLR_RAM IO_Init                   Allocated to registers ;size:2
                                           ;@CLR_RAM TIMER0_INT_Init           Allocated to registers ;size:2
                                           ;@CLR_RAM Sys_Init                  Allocated to registers ;size:2
                                           ;@CLR_RAM HIBYTEbits                Allocated to registers ;size:1
                                           ;@CLR_RAM FSR0bits                  Allocated to registers ;size:1
                                           ;@CLR_RAM FSR1bits                  Allocated to registers ;size:1
                                           ;@CLR_RAM PFLAGbits                 Allocated to registers ;size:1
                                           ;@CLR_RAM P4CONbits                 Allocated to registers ;size:1
                                           ;@CLR_RAM VREFCRbits                Allocated to registers ;size:1
                                           ;@CLR_RAM ADMbits                   Allocated to registers ;size:1
                                           ;@CLR_RAM ADBbits                   Allocated to registers ;size:1
                                           ;@CLR_RAM ADRbits                   Allocated to registers ;size:1
                                           ;@CLR_RAM ADTbits                   Allocated to registers ;size:1
                                           ;@CLR_RAM OEP0bits                  Allocated to registers ;size:1
                                           ;@CLR_RAM EINTCRbits                Allocated to registers ;size:1
                                           ;@CLR_RAM OEP4bits                  Allocated to registers ;size:1
                                           ;@CLR_RAM OEP5bits                  Allocated to registers ;size:1
                                           ;@CLR_RAM INTFbits                  Allocated to registers ;size:1
                                           ;@CLR_RAM INTEbits                  Allocated to registers ;size:1
                                           ;@CLR_RAM OSCMbits                  Allocated to registers ;size:1
                                           ;@CLR_RAM WDTCRbits                 Allocated to registers ;size:1
                                           ;@CLR_RAM T0LDRbits                 Allocated to registers ;size:1
                                           ;@CLR_RAM PCLbits                   Allocated to registers ;size:1
                                           ;@CLR_RAM PCHbits                   Allocated to registers ;size:1
                                           ;@CLR_RAM IOP0bits                  Allocated to registers ;size:1
                                           ;@CLR_RAM IOP4bits                  Allocated to registers ;size:1
                                           ;@CLR_RAM IOP5bits                  Allocated to registers ;size:1
                                           ;@CLR_RAM TMRCRbits                 Allocated to registers ;size:1
                                           ;@CLR_RAM T0CRbits                  Allocated to registers ;size:1
                                           ;@CLR_RAM T0CNTbits                 Allocated to registers ;size:1
                                           ;@CLR_RAM T1CRbits                  Allocated to registers ;size:1
                                           ;@CLR_RAM T1CNTbits                 Allocated to registers ;size:1
                                           ;@CLR_RAM T1LDRbits                 Allocated to registers ;size:1
                                           ;@CLR_RAM MCRbits                   Allocated to registers ;size:1
                                           ;@CLR_RAM PUP0bits                  Allocated to registers ;size:1
                                           ;@CLR_RAM PUP4bits                  Allocated to registers ;size:1
                                           ;@CLR_RAM PUP5bits                  Allocated to registers ;size:1
                                           ;@CLR_RAM INDFbits                  Allocated to registers ;size:1
                                           ;@CLR_RAM STKR3Lbits                Allocated to registers ;size:1
                                           ;@CLR_RAM STKR3Hbits                Allocated to registers ;size:1
                                           ;@CLR_RAM STKR2Lbits                Allocated to registers ;size:1
                                           ;@CLR_RAM STKR2Hbits                Allocated to registers ;size:1
                                           ;@CLR_RAM STKR1Lbits                Allocated to registers ;size:1
                                           ;@CLR_RAM STKR1Hbits                Allocated to registers ;size:1
                                           ;@CLR_RAM STKR0Lbits                Allocated to registers ;size:1
                                           ;@CLR_RAM STKR0Hbits                Allocated to registers ;size:1
                                           ;@CLR_RAM flag1                     Allocated to registers ;size:1
                                           ;@CLR_RAM HIBYTE                    Allocated to registers ;size:1
                                           ;@CLR_RAM FSR0                      Allocated to registers ;size:1
                                           ;@CLR_RAM FSR1                      Allocated to registers ;size:1
                                           ;@CLR_RAM PFLAG                     Allocated to registers ;size:1
                                           ;@CLR_RAM P4CON                     Allocated to registers ;size:1
                                           ;@CLR_RAM VREFCR                    Allocated to registers ;size:1
                                           ;@CLR_RAM ADM                       Allocated to registers ;size:1
                                           ;@CLR_RAM ADB                       Allocated to registers ;size:1
                                           ;@CLR_RAM ADR                       Allocated to registers ;size:1
                                           ;@CLR_RAM ADT                       Allocated to registers ;size:1
                                           ;@CLR_RAM OEP0                      Allocated to registers ;size:1
                                           ;@CLR_RAM EINTCR                    Allocated to registers ;size:1
                                           ;@CLR_RAM OEP4                      Allocated to registers ;size:1
                                           ;@CLR_RAM OEP5                      Allocated to registers ;size:1
                                           ;@CLR_RAM INTF                      Allocated to registers ;size:1
                                           ;@CLR_RAM INTE                      Allocated to registers ;size:1
                                           ;@CLR_RAM OSCM                      Allocated to registers ;size:1
                                           ;@CLR_RAM WDTCR                     Allocated to registers ;size:1
                                           ;@CLR_RAM T0LDR                     Allocated to registers ;size:1
                                           ;@CLR_RAM PCL                       Allocated to registers ;size:1
                                           ;@CLR_RAM PCH                       Allocated to registers ;size:1
                                           ;@CLR_RAM IOP0                      Allocated to registers ;size:1
                                           ;@CLR_RAM IOP4                      Allocated to registers ;size:1
                                           ;@CLR_RAM IOP5                      Allocated to registers ;size:1
                                           ;@CLR_RAM TMRCR                     Allocated to registers ;size:1
                                           ;@CLR_RAM T0CR                      Allocated to registers ;size:1
                                           ;@CLR_RAM T0CNT                     Allocated to registers ;size:1
                                           ;@CLR_RAM T1CR                      Allocated to registers ;size:1
                                           ;@CLR_RAM T1CNT                     Allocated to registers ;size:1
                                           ;@CLR_RAM T1LDR                     Allocated to registers ;size:1
                                           ;@CLR_RAM MCR                       Allocated to registers ;size:1
                                           ;@CLR_RAM PUP0                      Allocated to registers ;size:1
                                           ;@CLR_RAM PUP4                      Allocated to registers ;size:1
                                           ;@CLR_RAM PUP5                      Allocated to registers ;size:1
                                           ;@CLR_RAM INDF                      Allocated to registers ;size:1
                                           ;@CLR_RAM STKR3L                    Allocated to registers ;size:1
                                           ;@CLR_RAM STKR3H                    Allocated to registers ;size:1
                                           ;@CLR_RAM STKR2L                    Allocated to registers ;size:1
                                           ;@CLR_RAM STKR2H                    Allocated to registers ;size:1
                                           ;@CLR_RAM STKR1L                    Allocated to registers ;size:1
                                           ;@CLR_RAM STKR1H                    Allocated to registers ;size:1
                                           ;@CLR_RAM STKR0L                    Allocated to registers ;size:1
                                           ;@CLR_RAM STKR0H                    Allocated to registers ;size:1
                                           ;@end Allocation info for local variables in function 'CLR_RAM';
                                           ;@Allocation info for local variables in function 'IO_Init'
                                           ;@end Allocation info for local variables in function 'IO_Init';
                                           ;@Allocation info for local variables in function 'TIMER0_INT_Init'
                                           ;@end Allocation info for local variables in function 'TIMER0_INT_Init';
                                           ;@Allocation info for local variables in function 'Sys_Init'
                                           ;@end Allocation info for local variables in function 'Sys_Init';
                                           ;@Allocation info for local variables in function 'main'
                                           ;@main num                       Allocated to registers r0x1000 ;size:1
                                           ;@end Allocation info for local variables in function 'main';
                                           ;@Allocation info for local variables in function 'int_isr'
                                           ;@end Allocation info for local variables in function 'int_isr';
                                           
                                           ;--------------------------------------------------------
                                           ; overlayable items in internal ram 
                                           ;--------------------------------------------------------
                                           ;	udata_ovr
                                           ;--------------------------------------------------------
                                           ; reset vector 
                                           ;--------------------------------------------------------
                                           STARTUP	code 0x0000
000000   801e     goto    0x1e             	goto	_main
                                           ;--------------------------------------------------------
                                           ; interrupt and initialization code
                                           ;--------------------------------------------------------
                                           c_interrupt	code	0x8
                                           __sdcc_interrupt
                                           ;***
                                           ;  pBlock Stats: dbName = I
                                           ;***
                                           ;entry:  _int_isr	;Function start
                                           ; 0 exit points
                                           ;2 compiler assigned registers:
                                           ;   r0x1003
                                           ;   r0x1004
                                           ;; Starting pCode block
                                           _int_isr	;Function start
                                           ; 0 exit points
                                           ;	.line	134; "MC35P7040_Demo_C.c"	__endasm;
000008   0400     push                     	push
                                           	
                                           ;	.line	135; "MC35P7040_Demo_C.c"	if(T0IF&&T0IE)
000009   5dc8     jbset   0xc8, 0x5        	JBSET	_INTFbits,5
00000a   801c     goto    0x1c             	GOTO	_00131_DS_
00000b   5dc9     jbset   0xc9, 0x5        	JBSET	_INTEbits,5
00000c   801c     goto    0x1c             	GOTO	_00131_DS_
                                           ;	.line	137; "MC35P7040_Demo_C.c"	T0IF=0;
00000d   45c8     bclr    0xc8, 0x5        	BCLR	_INTFbits,5
                                           ;	.line	138; "MC35P7040_Demo_C.c"	P54D=!P54D;
00000e   2b09     clrr    0x9              	CLRR	r0x1003
00000f   54d5     jbclr   0xd5, 0x4        	JBCLR	_IOP5bits,4
000010   1609     jzr     0x9              	JZR	r0x1003
000011   0000     nop                      	NOP	
000012   1e09     movar   0x9              	MOVAR	r0x1003
000013   2d00     movai   0                	MOVAI	0x00
000014   5086     jbclr   0x86, 0          	JBCLR	PFLAG,0
000015   2d01     movai   0x1              	MOVAI	0x01
000016   1f09     movra   0x9              	MOVRA	r0x1003
                                           ;;1	MOVRA	r0x1004
                                           ;;100	MOVAR	r0x1004
000017   0809     rrar    0x9              	RRAR	r0x1003
000018   5a86     jbset   0x86, 0x2        	JBSET	PFLAG,2
000019   44d5     bclr    0xd5, 0x4        	BCLR	_IOP5bits,4
00001a   5286     jbclr   0x86, 0x2        	JBCLR	PFLAG,2
00001b   4cd5     bset    0xd5, 0x4        	BSET	_IOP5bits,4
                                           _00131_DS_
                                           ;	.line	142; "MC35P7040_Demo_C.c"	__endasm;
00001c   0500     pop                      	pop
                                           	
                                           END_OF_INTERRUPT
                                           ;	.line	143; "MC35P7040_Demo_C.c"	}
00001d   0f00     retie                    	RETIE	
                                           
                                           ;--------------------------------------------------------
                                           ; code
                                           ;--------------------------------------------------------
                                           code_MC35P7040_Demo_C	code
                                           ;***
                                           ;  pBlock Stats: dbName = M
                                           ;***
                                           ;entry:  _main	;Function start
                                           ; 2 exit points
                                           ;has an exit
                                           ;functions called:
                                           ;   _Sys_Init
                                           ;   _Sys_Init
                                           ;3 compiler assigned registers:
                                           ;   r0x1000
                                           ;   r0x1001
                                           ;   r0x1002
                                           ;; Starting pCode block
                                           _main	;Function start
                                           ; 2 exit points
                                           ;	.line	88; "MC35P7040_Demo_C.c"	Sys_Init();
00001e   c058     call    0x58             	CALL	_Sys_Init
                                           _00123_DS_
                                           ;	.line	91; "MC35P7040_Demo_C.c"	ADEN=0;	   	   	 //关闭外设    	
00001f   47b1     bclr    0xb1, 0x7        	BCLR	_ADMbits,7
                                           ;	.line	92; "MC35P7040_Demo_C.c"	CLKS=1;	   	//切换到低频 4t
000020   4aca     bset    0xca, 0x2        	BSET	_OSCMbits,2
                                           ;	.line	93; "MC35P7040_Demo_C.c"	Nop();
000021   0000     nop                      	nop
                                           ;	.line	94; "MC35P7040_Demo_C.c"	HFDE=1;	   	//关闭高频
000022   49ca     bset    0xca, 0x1        	BSET	_OSCMbits,1
                                           ;	.line	96; "MC35P7040_Demo_C.c"	T0CNT=256-125;     	   	   	   	   	   	   
000023   2d83     movai   0x83             	MOVAI	0x83
000024   1fdb     movra   0xdb             	MOVRA	_T0CNT
                                           ;	.line	97; "MC35P7040_Demo_C.c"	T0EN=1;
000025   4fda     bset    0xda, 0x7        	BSET	_T0CRbits,7
                                           ;	.line	98; "MC35P7040_Demo_C.c"	T0IE=1;
000026   4dc9     bset    0xc9, 0x5        	BSET	_INTEbits,5
                                           ;	.line	99; "MC35P7040_Demo_C.c"	INTF=0;
000027   2bc8     clrr    0xc8             	CLRR	_INTF
                                           ;	.line	100; "MC35P7040_Demo_C.c"	Nop();
000028   0000     nop                      	nop
                                           ;	.line	101; "MC35P7040_Demo_C.c"	Nop();
000029   0000     nop                      	nop
                                           ;	.line	102; "MC35P7040_Demo_C.c"	OSCM&=0xE7;   
00002a   2de7     movai   0xe7             	MOVAI	0xe7
00002b   29ca     andra   0xca             	ANDRA	_OSCM
                                           ;	.line	103; "MC35P7040_Demo_C.c"	OSCM|=0x10;	   	   	   	   	//绿色模式
00002c   4cca     bset    0xca, 0x4        	BSET	_OSCM,4
                                           ;	.line	104; "MC35P7040_Demo_C.c"	Nop();
00002d   0000     nop                      	nop
                                           ;	.line	105; "MC35P7040_Demo_C.c"	Nop();
00002e   0000     nop                      	nop
                                           ;	.line	106; "MC35P7040_Demo_C.c"	Nop(); 	   	   	  
00002f   0000     nop                      	nop
                                           ;	.line	107; "MC35P7040_Demo_C.c"	T0IE=0;
000030   45c9     bclr    0xc9, 0x5        	BCLR	_INTEbits,5
                                           ;	.line	108; "MC35P7040_Demo_C.c"	T0EN=0;
000031   47da     bclr    0xda, 0x7        	BCLR	_T0CRbits,7
                                           ;	.line	109; "MC35P7040_Demo_C.c"	HFDE=0;	   	//打开高频  (用户自己选择)
000032   41ca     bclr    0xca, 0x1        	BCLR	_OSCMbits,1
                                           ;	.line	110; "MC35P7040_Demo_C.c"	Nop();
000033   0000     nop                      	nop
                                           ;	.line	111; "MC35P7040_Demo_C.c"	Nop();
000034   0000     nop                      	nop
                                           ;	.line	112; "MC35P7040_Demo_C.c"	CLKS=0;	   	//切换到高频	   	(用户自己选择)
000035   42ca     bclr    0xca, 0x2        	BCLR	_OSCMbits,2
                                           ;	.line	114; "MC35P7040_Demo_C.c"	ADEN=1;	   	//开启相应的外设  (用户自己选择)
000036   4fb1     bset    0xb1, 0x7        	BSET	_ADMbits,7
                                           ;	.line	116; "MC35P7040_Demo_C.c"	for(num=0;num<200;num++)
000037   2b07     clrr    0x7              	CLRR	r0x1000
                                           _00125_DS_
                                           ;	.line	118; "MC35P7040_Demo_C.c"	P01D=!P01D;
000038   2b08     clrr    0x8              	CLRR	r0x1001
000039   51d0     jbclr   0xd0, 0x1        	JBCLR	_IOP0bits,1
00003a   1608     jzr     0x8              	JZR	r0x1001
00003b   0000     nop                      	NOP	
00003c   1e08     movar   0x8              	MOVAR	r0x1001
00003d   2d00     movai   0                	MOVAI	0x00
00003e   5086     jbclr   0x86, 0          	JBCLR	PFLAG,0
00003f   2d01     movai   0x1              	MOVAI	0x01
000040   1f08     movra   0x8              	MOVRA	r0x1001
                                           ;;1	MOVRA	r0x1002
                                           ;;99	MOVAR	r0x1002
000041   0808     rrar    0x8              	RRAR	r0x1001
000042   5a86     jbset   0x86, 0x2        	JBSET	PFLAG,2
000043   41d0     bclr    0xd0, 0x1        	BCLR	_IOP0bits,1
000044   5286     jbclr   0x86, 0x2        	JBCLR	PFLAG,2
000045   49d0     bset    0xd0, 0x1        	BSET	_IOP0bits,1
                                           ;	.line	119; "MC35P7040_Demo_C.c"	Nop();
000046   0000     nop                      	nop
                                           ;	.line	120; "MC35P7040_Demo_C.c"	Nop();
000047   0000     nop                      	nop
                                           ;	.line	121; "MC35P7040_Demo_C.c"	Nop();
000048   0000     nop                      	nop
                                           ;	.line	122; "MC35P7040_Demo_C.c"	Nop();
000049   0000     nop                      	nop
                                           ;	.line	123; "MC35P7040_Demo_C.c"	Nop();
00004a   0000     nop                      	nop
                                           ;	.line	124; "MC35P7040_Demo_C.c"	Nop();
00004b   0000     nop                      	nop
                                           ;	.line	125; "MC35P7040_Demo_C.c"	Nop();
00004c   0000     nop                      	nop
                                           ;	.line	126; "MC35P7040_Demo_C.c"	Nop();
00004d   0000     nop                      	nop
                                           ;	.line	116; "MC35P7040_Demo_C.c"	for(num=0;num<200;num++)
00004e   2d01     movai   0x1              	MOVAI	0x01
00004f   1307     addra   0x7              	ADDRA	r0x1000
                                           ;;unsigned compare: left < lit(0xC8=200), size=1
000050   2dc8     movai   0xc8             	MOVAI	0xc8
000051   2c07     xch     0x7              	XCH	r0x1000
000052   2307     asubra  0x7              	ASUBRA	r0x1000
000053   2c07     xch     0x7              	XCH	r0x1000
000054   5a86     jbset   0x86, 0x2        	JBSET	PFLAG,2
000055   8038     goto    0x38             	GOTO	_00125_DS_
                                           ;;genSkipc:3318: created from rifx:00285F1C
000056   801f     goto    0x1f             	GOTO	_00123_DS_
                                           ;	.line	129; "MC35P7040_Demo_C.c"	}
000057   0e00     return                   	RETURN	
                                           ; exit point of _main
                                           
                                           ;***
                                           ;  pBlock Stats: dbName = C
                                           ;***
                                           ;entry:  _Sys_Init	;Function start
                                           ; 2 exit points
                                           ;has an exit
                                           ;functions called:
                                           ;   _CLR_RAM
                                           ;   _IO_Init
                                           ;   _TIMER0_INT_Init
                                           ;   _CLR_RAM
                                           ;   _IO_Init
                                           ;   _TIMER0_INT_Init
                                           ;; Starting pCode block
                                           _Sys_Init	;Function start
                                           ; 2 exit points
                                           ;	.line	79; "MC35P7040_Demo_C.c"	GIE = 0;
000058   47df     bclr    0xdf, 0x7        	BCLR	_MCRbits,7
                                           ;	.line	80; "MC35P7040_Demo_C.c"	CLR_RAM();
000059   c076     call    0x76             	CALL	_CLR_RAM
                                           ;	.line	81; "MC35P7040_Demo_C.c"	IO_Init();
00005a   c067     call    0x67             	CALL	_IO_Init
                                           ;	.line	82; "MC35P7040_Demo_C.c"	TIMER0_INT_Init();
00005b   c05e     call    0x5e             	CALL	_TIMER0_INT_Init
                                           ;	.line	83; "MC35P7040_Demo_C.c"	GIE=1;        
00005c   4fdf     bset    0xdf, 0x7        	BSET	_MCRbits,7
                                           ;	.line	84; "MC35P7040_Demo_C.c"	}
00005d   0e00     return                   	RETURN	
                                           ; exit point of _Sys_Init
                                           
                                           ;***
                                           ;  pBlock Stats: dbName = C
                                           ;***
                                           ;entry:  _TIMER0_INT_Init	;Function start
                                           ; 2 exit points
                                           ;has an exit
                                           ;; Starting pCode block
                                           _TIMER0_INT_Init	;Function start
                                           ; 2 exit points
                                           ;	.line	65; "MC35P7040_Demo_C.c"	TMRCR=0x06;            //T1CLK=FCPU/2      T0CLK=Fosc    允许T0溢出唤醒
00005e   2d06     movai   0x6              	MOVAI	0x06
00005f   1fd8     movra   0xd8             	MOVRA	_TMRCR
                                           ;	.line	66; "MC35P7040_Demo_C.c"	T0CR=0x04;          //开启T0    128分频  T0CLK内部时钟  自动重载  关闭PWM
000060   2d04     movai   0x4              	MOVAI	0x04
000061   1fda     movra   0xda             	MOVRA	_T0CR
                                           ;	.line	67; "MC35P7040_Demo_C.c"	T0CNT=256-125;
000062   2d83     movai   0x83             	MOVAI	0x83
000063   1fdb     movra   0xdb             	MOVRA	_T0CNT
                                           ;	.line	68; "MC35P7040_Demo_C.c"	T0LDR=256-125;     // 进入低频后   32k/4/128=2s      //低频模式固定4t
000064   2d83     movai   0x83             	MOVAI	0x83
000065   1fcd     movra   0xcd             	MOVRA	_T0LDR
                                           ;	.line	70; "MC35P7040_Demo_C.c"	}
000066   0e00     return                   	RETURN	
                                           ; exit point of _TIMER0_INT_Init
                                           
                                           ;***
                                           ;  pBlock Stats: dbName = C
                                           ;***
                                           ;entry:  _IO_Init	;Function start
                                           ; 2 exit points
                                           ;has an exit
                                           ;; Starting pCode block
                                           _IO_Init	;Function start
                                           ; 2 exit points
                                           ;	.line	43; "MC35P7040_Demo_C.c"	IOP0=0x00; 	   	   	//io口数据位
000067   2bd0     clrr    0xd0             	CLRR	_IOP0
                                           ;	.line	44; "MC35P7040_Demo_C.c"	OEP0=0xff; 	   	   	//io口方向 1:out  0:in  
000068   2dff     movai   0xff             	MOVAI	0xff
000069   1fb8     movra   0xb8             	MOVRA	_OEP0
                                           ;	.line	45; "MC35P7040_Demo_C.c"	PUP0=0x00; 	   	   	//io口上拉电阻   1:enable  0:disable
00006a   2be0     clrr    0xe0             	CLRR	_PUP0
                                           ;	.line	47; "MC35P7040_Demo_C.c"	IOP4=0x00; 	   	   	//io口数据位
00006b   2bd4     clrr    0xd4             	CLRR	_IOP4
                                           ;	.line	48; "MC35P7040_Demo_C.c"	OEP4=0xff; 	   	   	//io口方向 1:out  0:in   
00006c   2dff     movai   0xff             	MOVAI	0xff
00006d   1fc4     movra   0xc4             	MOVRA	_OEP4
                                           ;	.line	49; "MC35P7040_Demo_C.c"	PUP4=0x00; 	   	   	//io口上拉电阻   1:enable  0:disable
00006e   2be4     clrr    0xe4             	CLRR	_PUP4
                                           ;	.line	51; "MC35P7040_Demo_C.c"	IOP5=0x00; 	   	   	//io口数据位
00006f   2bd5     clrr    0xd5             	CLRR	_IOP5
                                           ;	.line	52; "MC35P7040_Demo_C.c"	OEP5=0xff; 	   	   	//io口方向 1:out  0:in  
000070   2dff     movai   0xff             	MOVAI	0xff
000071   1fc5     movra   0xc5             	MOVRA	_OEP5
                                           ;	.line	53; "MC35P7040_Demo_C.c"	PUP5=0x00; 	   	   	//io口上拉电阻   1:enable  0:disable
000072   2be5     clrr    0xe5             	CLRR	_PUP5
                                           ;	.line	55; "MC35P7040_Demo_C.c"	P4CON=0xff;
000073   2dff     movai   0xff             	MOVAI	0xff
000074   1fae     movra   0xae             	MOVRA	_P4CON
                                           ;	.line	56; "MC35P7040_Demo_C.c"	}
000075   0e00     return                   	RETURN	
                                           ; exit point of _IO_Init
                                           
                                           ;***
                                           ;  pBlock Stats: dbName = C
                                           ;***
                                           ;entry:  _CLR_RAM	;Function start
                                           ; 2 exit points
                                           ;has an exit
                                           ;; Starting pCode block
                                           _CLR_RAM	;Function start
                                           ; 2 exit points
                                           ;	.line	33; "MC35P7040_Demo_C.c"	__endasm;
000076   2d3f     movai   0x3f             	movai	0x3F
000077   1f83     movra   0x83             	movra	FSR0
000078   2b84     clrr    0x84             	clrr	FSR1
000079   2be7     clrr    0xe7             	clrr	INDF
00007a   2683     djzr    0x83             	DJZR	FSR0
00007b   8079     goto    0x79             	goto	$-2
00007c   2be7     clrr    0xe7             	clrr	INDF
                                           ;	.line	34; "MC35P7040_Demo_C.c"	}
00007d   0e00     return                   	RETURN	
                                           ; exit point of _CLR_RAM
                                           
                                           
                                           ;	code size estimation:
                                           ;	   93+    0 =    93 instructions (  186 byte)
                                           
                                           	end


MEMORY USAGE MAP ('X' = Used,  '-' = Unused)

0000 : XX-------------- XXXXXXXXXXXXXXXX XXXXXXXXXXXXXXXX XXXXXXXXXXXXXXXX
0040 : XXXXXXXXXXXXXXXX XXXXXXXXXXXXXXXX XXXXXXXXXXXXXXXX XXXXXXXXXXXXXXXX
0080 : XXXXXXXXXXXXXXXX XXXXXXXXXXXXXXXX XXXXXXXXXXXXXXXX XXXXXXXXXXXXXXXX
00C0 : XXXXXXXXXXXXXXXX XXXXXXXXXXXXXXXX XXXXXXXXXXXXXXXX XXXXXXXXXXXX----

All other memory blocks unused.

Program Memory Words Used:   119

